; Function Attrs: nounwind uwtable
define internal fastcc void @mxf_write_avc_subdesc(ptr noundef readonly captures(none) %0, ptr noundef readonly captures(none) %1) unnamed_addr #0 {
  %3 = getelementptr inbounds nuw i8, ptr %0, i64 32
  %4 = load ptr, ptr %3, align 8, !tbaa !24
  tail call void @avio_write(ptr noundef %4, ptr noundef nonnull @mxf_avc_subdescriptor_key, i32 noundef 16) #14
  tail call void @avio_w8(ptr noundef %4, i32 noundef 131) #14
  tail call void @avio_wb24(ptr noundef %4, i32 noundef 0) #14
  %5 = tail call i64 @avio_seek(ptr noundef %4, i64 noundef 0, i32 noundef 1) #14
  %6 = getelementptr i8, ptr %0, i64 24
  %.val20 = load ptr, ptr %6, align 8, !tbaa !4
  %.val21 = load ptr, ptr %3, align 8, !tbaa !24
  tail call fastcc void @mxf_write_local_tag(ptr %.val20, ptr %.val21, i32 noundef 16, i32 noundef 15370)
  tail call void @avio_write(ptr noundef %4, ptr noundef nonnull @uuid_base, i32 noundef 10) #14
  tail call void @avio_wb16(ptr noundef %4, i32 noundef 20) #14
  tail call void @avio_wb32(ptr noundef %4, i32 noundef 0) #14
  %.val18 = load ptr, ptr %6, align 8, !tbaa !4
  %.val19 = load ptr, ptr %3, align 8, !tbaa !24
  tail call fastcc void @mxf_write_local_tag(ptr %.val18, ptr %.val19, i32 noundef 1, i32 noundef 33280)
  tail call void @avio_w8(ptr noundef %4, i32 noundef 255) #14
  %.val16 = load ptr, ptr %6, align 8, !tbaa !4
  %.val17 = load ptr, ptr %3, align 8, !tbaa !24
  tail call fastcc void @mxf_write_local_tag(ptr %.val16, ptr %.val17, i32 noundef 1, i32 noundef 33281)
  %7 = getelementptr inbounds nuw i8, ptr %1, i64 16
  %8 = load ptr, ptr %7, align 8, !tbaa !48
  %9 = getelementptr inbounds nuw i8, ptr %8, i64 64
  %10 = load i32, ptr %9, align 8, !tbaa !55
  tail call void @avio_w8(ptr noundef %4, i32 noundef %10) #14
  %.val = load ptr, ptr %6, align 8, !tbaa !4
  %.val15 = load ptr, ptr %3, align 8, !tbaa !24
  tail call fastcc void @mxf_write_local_tag(ptr %.val, ptr %.val15, i32 noundef 1, i32 noundef 33282)
  %11 = load ptr, ptr %7, align 8, !tbaa !48
  %12 = getelementptr inbounds nuw i8, ptr %11, i64 68
  %13 = load i32, ptr %12, align 4, !tbaa !56
  tail call void @avio_w8(ptr noundef %4, i32 noundef %13) #14
  %14 = load ptr, ptr %3, align 8, !tbaa !24
  %15 = tail call i64 @avio_seek(ptr noundef %14, i64 noundef 0, i32 noundef 1) #14
  %16 = sub nsw i64 %15, %5
  %17 = trunc i64 %16 to i32
  %18 = add nsw i64 %5, -4
  %19 = tail call i64 @avio_seek(ptr noundef %14, i64 noundef %18, i32 noundef 0) #14
  tail call void @avio_w8(ptr noundef %14, i32 noundef 131) #14
  tail call void @avio_wb24(ptr noundef %14, i32 noundef %17) #14
  %20 = tail call i64 @avio_seek(ptr noundef %14, i64 noundef %15, i32 noundef 0) #14
  ret void
}